; Function Attrs: mustprogress uwtable
define dso_local void @_Z34ImGui_ImplGlfw_CursorEnterCallbackP10GLFWwindowi(ptr noundef %0, i32 noundef %1) #1 {
_ZL29ImGui_ImplGlfw_GetBackendDatav.exit:
  %2 = tail call noundef ptr @_ZN5ImGui17GetCurrentContextEv()
  %.not.i = icmp ne ptr %2, null
  tail call void @llvm.assume(i1 %.not.i)
  %3 = tail call noundef nonnull align 8 dereferenceable(2944) ptr @_ZN5ImGui5GetIOEv()
  %4 = getelementptr inbounds nuw i8, ptr %3, i64 144
  %5 = load ptr, ptr %4, align 8, !tbaa !4
  %6 = getelementptr inbounds nuw i8, ptr %5, i64 136
  %7 = load ptr, ptr %6, align 8, !tbaa !36
  %.not = icmp eq ptr %7, null
  br i1 %.not, label %21, label %8

8:                                                ; preds = %_ZL29ImGui_ImplGlfw_GetBackendDatav.exit
  %9 = tail call noundef ptr @_ZN5ImGui17GetCurrentContextEv()
  %.not.i.i = icmp eq ptr %9, null
  br i1 %.not.i.i, label %_ZL29ImGui_ImplGlfw_GetBackendDatav.exit.i, label %10

10:                                               ; preds = %8
  %11 = tail call noundef nonnull align 8 dereferenceable(2944) ptr @_ZN5ImGui5GetIOEv()
  %12 = getelementptr inbounds nuw i8, ptr %11, i64 144
  %13 = load ptr, ptr %12, align 8, !tbaa !4
  br label %_ZL29ImGui_ImplGlfw_GetBackendDatav.exit.i

_ZL29ImGui_ImplGlfw_GetBackendDatav.exit.i:       ; preds = %10, %8
  %14 = phi ptr [ %13, %10 ], [ null, %8 ]
  %15 = getelementptr inbounds nuw i8, ptr %14, i64 113
  %16 = load i8, ptr %15, align 1, !tbaa !26, !range !27, !noundef !28
  %17 = trunc nuw i8 %16 to i1
  br i1 %17, label %_ZL34ImGui_ImplGlfw_ShouldChainCallbackP10GLFWwindow.exit.thread, label %_ZL34ImGui_ImplGlfw_ShouldChainCallbackP10GLFWwindow.exit

_ZL34ImGui_ImplGlfw_ShouldChainCallbackP10GLFWwindow.exit: ; preds = %_ZL29ImGui_ImplGlfw_GetBackendDatav.exit.i
  %18 = load ptr, ptr %14, align 8, !tbaa !29
  %19 = icmp eq ptr %0, %18
  br i1 %19, label %_ZL34ImGui_ImplGlfw_ShouldChainCallbackP10GLFWwindow.exit.thread, label %21

_ZL34ImGui_ImplGlfw_ShouldChainCallbackP10GLFWwindow.exit.thread: ; preds = %_ZL29ImGui_ImplGlfw_GetBackendDatav.exit.i, %_ZL34ImGui_ImplGlfw_ShouldChainCallbackP10GLFWwindow.exit
  %20 = load ptr, ptr %6, align 8, !tbaa !36
  tail call void %20(ptr noundef %0, i32 noundef %1)
  br label %21

21:                                               ; preds = %_ZL34ImGui_ImplGlfw_ShouldChainCallbackP10GLFWwindow.exit.thread, %_ZL34ImGui_ImplGlfw_ShouldChainCallbackP10GLFWwindow.exit, %_ZL29ImGui_ImplGlfw_GetBackendDatav.exit
  %22 = tail call noundef nonnull align 8 dereferenceable(2944) ptr @_ZN5ImGui5GetIOEv()
  %.not17 = icmp eq i32 %1, 0
  %23 = getelementptr inbounds nuw i8, ptr %5, i64 24
  br i1 %.not17, label %29, label %24

24:                                               ; preds = %21
  store ptr %0, ptr %23, align 8, !tbaa !37
  %25 = getelementptr inbounds nuw i8, ptr %5, i64 104
  %26 = load float, ptr %25, align 8, !tbaa !38
  %27 = getelementptr inbounds nuw i8, ptr %5, i64 108
  %28 = load float, ptr %27, align 4, !tbaa !39
  tail call void @_ZN7ImGuiIO16AddMousePosEventEff(ptr noundef nonnull align 8 dereferenceable(2944) %22, float noundef %26, float noundef %28)
  br label %36

29:                                               ; preds = %21
  %30 = load ptr, ptr %23, align 8, !tbaa !37
  %31 = icmp eq ptr %30, %0
  br i1 %31, label %32, label %36

32:                                               ; preds = %29
  %33 = getelementptr inbounds nuw i8, ptr %22, i64 216
  %34 = getelementptr inbounds nuw i8, ptr %5, i64 104
  %35 = load i64, ptr %33, align 8
  store i64 %35, ptr %34, align 8
  store ptr null, ptr %23, align 8, !tbaa !37
  tail call void @_ZN7ImGuiIO16AddMousePosEventEff(ptr noundef nonnull align 8 dereferenceable(2944) %22, float noundef 0xC7EFFFFFE0000000, float noundef 0xC7EFFFFFE0000000)
  br label %36

36:                                               ; preds = %29, %32, %24
  ret void
}